; Function Attrs: mustprogress nofree norecurse nosync nounwind willreturn memory(argmem: write) uwtable
define void @_ZN2mu14ParserCallbackC2EPFdiidddddEb(ptr noundef nonnull writeonly align 8 captures(none) dereferenceable(32) initializes((0, 29)) %0, ptr noundef %1, i1 noundef zeroext %2) unnamed_addr #6 align 2 {
  %4 = zext i1 %2 to i8
  store ptr %1, ptr %0, align 8, !tbaa !4
  %5 = getelementptr inbounds nuw i8, ptr %0, i64 8
  store i32 5, ptr %5, align 8, !tbaa !14
  %6 = getelementptr inbounds nuw i8, ptr %0, i64 12
  store i32 -1, ptr %6, align 4, !tbaa !15
  %7 = getelementptr inbounds nuw i8, ptr %0, i64 16
  store i32 2, ptr %7, align 8, !tbaa !16
  %8 = getelementptr inbounds nuw i8, ptr %0, i64 20
  store i32 28, ptr %8, align 4, !tbaa !17
  %9 = getelementptr inbounds nuw i8, ptr %0, i64 24
  store i32 1, ptr %9, align 8, !tbaa !18
  %10 = getelementptr inbounds nuw i8, ptr %0, i64 28
  store i8 %4, ptr %10, align 4, !tbaa !19
  ret void
}